; ModuleID = '38/1313.c'
source_filename = "38/1313.c"
target datalayout = "e-m:e-p270:32:32-p271:32:32-p272:64:64-i64:64-f80:128-n8:16:32:64-S128"
target triple = "x86_64-pc-linux-gnu"

@.str = private unnamed_addr constant [3 x i8] c"%d\00", align 1
@.str.1 = private unnamed_addr constant [4 x i8] c"%lf\00", align 1
@.str.2 = private unnamed_addr constant [7 x i8] c"%.5lf\0A\00", align 1

; Function Attrs: noinline nounwind uwtable
define dso_local i32 @main(i32 %0, i8** %1) #0 {
  %3 = alloca i32, align 4
  %4 = alloca i32, align 4
  %5 = alloca i8**, align 8
  %6 = alloca i32, align 4
  %7 = alloca i32, align 4
  %8 = alloca i32, align 4
  %9 = alloca i32, align 4
  %10 = alloca [1000 x double], align 16
  %11 = alloca double, align 8
  %12 = alloca double, align 8
  %13 = alloca double, align 8
  store i32 0, i32* %3, align 4
  store i32 %0, i32* %4, align 4
  store i8** %1, i8*** %5, align 8
  %14 = call i32 (i8*, ...) @__isoc99_scanf(i8* getelementptr inbounds ([3 x i8], [3 x i8]* @.str, i64 0, i64 0), i32* %7)
  store i32 0, i32* %6, align 4
  br label %15

15:                                               ; preds = %83, %2
  %16 = load i32, i32* %6, align 4
  %17 = load i32, i32* %7, align 4
  %18 = icmp slt i32 %16, %17
  br i1 %18, label %19, label %86

19:                                               ; preds = %15
  store double 0.000000e+00, double* %11, align 8
  store double 0.000000e+00, double* %12, align 8
  %20 = call i32 (i8*, ...) @__isoc99_scanf(i8* getelementptr inbounds ([3 x i8], [3 x i8]* @.str, i64 0, i64 0), i32* %9)
  store i32 0, i32* %8, align 4
  br label %21

21:                                               ; preds = %30, %19
  %22 = load i32, i32* %8, align 4
  %23 = load i32, i32* %9, align 4
  %24 = icmp slt i32 %22, %23
  br i1 %24, label %25, label %33

25:                                               ; preds = %21
  %26 = load i32, i32* %8, align 4
  %27 = sext i32 %26 to i64
  %28 = getelementptr inbounds [1000 x double], [1000 x double]* %10, i64 0, i64 %27
  %29 = call i32 (i8*, ...) @__isoc99_scanf(i8* getelementptr inbounds ([4 x i8], [4 x i8]* @.str.1, i64 0, i64 0), double* %28)
  br label %30

30:                                               ; preds = %25
  %31 = load i32, i32* %8, align 4
  %32 = add nsw i32 %31, 1
  store i32 %32, i32* %8, align 4
  br label %21

33:                                               ; preds = %21
  store i32 0, i32* %8, align 4
  br label %34

34:                                               ; preds = %45, %33
  %35 = load i32, i32* %8, align 4
  %36 = load i32, i32* %9, align 4
  %37 = icmp slt i32 %35, %36
  br i1 %37, label %38, label %48

38:                                               ; preds = %34
  %39 = load i32, i32* %8, align 4
  %40 = sext i32 %39 to i64
  %41 = getelementptr inbounds [1000 x double], [1000 x double]* %10, i64 0, i64 %40
  %42 = load double, double* %41, align 8
  %43 = load double, double* %11, align 8
  %44 = fadd double %43, %42
  store double %44, double* %11, align 8
  br label %45

45:                                               ; preds = %38
  %46 = load i32, i32* %8, align 4
  %47 = add nsw i32 %46, 1
  store i32 %47, i32* %8, align 4
  br label %34

48:                                               ; preds = %34
  %49 = load double, double* %11, align 8
  %50 = load i32, i32* %9, align 4
  %51 = sitofp i32 %50 to double
  %52 = fdiv double %49, %51
  store double %52, double* %13, align 8
  store i32 0, i32* %8, align 4
  br label %53

53:                                               ; preds = %73, %48
  %54 = load i32, i32* %8, align 4
  %55 = load i32, i32* %9, align 4
  %56 = icmp slt i32 %54, %55
  br i1 %56, label %57, label %76

57:                                               ; preds = %53
  %58 = load double, double* %12, align 8
  %59 = load i32, i32* %8, align 4
  %60 = sext i32 %59 to i64
  %61 = getelementptr inbounds [1000 x double], [1000 x double]* %10, i64 0, i64 %60
  %62 = load double, double* %61, align 8
  %63 = load double, double* %13, align 8
  %64 = fsub double %62, %63
  %65 = load i32, i32* %8, align 4
  %66 = sext i32 %65 to i64
  %67 = getelementptr inbounds [1000 x double], [1000 x double]* %10, i64 0, i64 %66
  %68 = load double, double* %67, align 8
  %69 = load double, double* %13, align 8
  %70 = fsub double %68, %69
  %71 = fmul double %64, %70
  %72 = fadd double %58, %71
  store double %72, double* %12, align 8
  br label %73

73:                                               ; preds = %57
  %74 = load i32, i32* %8, align 4
  %75 = add nsw i32 %74, 1
  store i32 %75, i32* %8, align 4
  br label %53

76:                                               ; preds = %53
  %77 = load double, double* %12, align 8
  %78 = load i32, i32* %9, align 4
  %79 = sitofp i32 %78 to double
  %80 = fdiv double %77, %79
  %81 = call double @sqrt(double %80) #3
  %82 = call i32 (i8*, ...) @printf(i8* getelementptr inbounds ([7 x i8], [7 x i8]* @.str.2, i64 0, i64 0), double %81)
  br label %83

83:                                               ; preds = %76
  %84 = load i32, i32* %6, align 4
  %85 = add nsw i32 %84, 1
  store i32 %85, i32* %6, align 4
  br label %15

86:                                               ; preds = %15
  ret i32 0
}

declare dso_local i32 @__isoc99_scanf(i8*, ...) #1

declare dso_local i32 @printf(i8*, ...) #1

; Function Attrs: nounwind
declare dso_local double @sqrt(double) #2


!llvm.module.flags = !{!0}
!llvm.ident = !{!1}

!0 = !{i32 1, !"wchar_size", i32 4}
!1 = !{!"clang version 10.0.0-4ubuntu1 "}
